; Function Attrs: mustprogress uwtable
define void @_ZN4LIEF5MachO12SubFrameworkC2ERKNS0_7details21sub_framework_commandE(ptr noundef nonnull align 8 dereferenceable(88) %0, ptr nocapture noundef nonnull readonly align 4 dereferenceable(12) %1) unnamed_addr #0 align 2 {
  %3 = load i32, ptr %1, align 4
  %4 = zext i32 %3 to i64
  %5 = getelementptr inbounds i8, ptr %1, i64 4
  %6 = load i32, ptr %5, align 4
  tail call void @_ZN4LIEF5MachO11LoadCommandC2ENS0_18LOAD_COMMAND_TYPESEj(ptr noundef nonnull align 8 dereferenceable(56) %0, i64 noundef %4, i32 noundef %6)
  store ptr getelementptr inbounds ({ [9 x ptr] }, ptr @_ZTVN4LIEF5MachO12SubFrameworkE, i64 0, i32 0, i64 2), ptr %0, align 8
  %7 = getelementptr inbounds i8, ptr %0, i64 56
  tail call void @_ZNSt7__cxx1112basic_stringIcSt11char_traitsIcESaIcEEC1Ev(ptr noundef nonnull align 8 dereferenceable(32) %7) #7
  ret void
}